; Function Attrs: mustprogress uwtable
define hidden void @_ZNK13atom2bool_var6mk_invER10ref_vectorI4expr11ast_managerE(ptr nocapture noundef nonnull readonly align 8 dereferenceable(41) %this, ptr nocapture noundef nonnull readonly align 8 dereferenceable(16) %lit2expr) local_unnamed_addr #3 align 2 {
entry:
  %m_mapping = getelementptr inbounds i8, ptr %this, i64 16
  %0 = load ptr, ptr %m_mapping, align 8
  %cmp.i.i = icmp eq ptr %0, null
  br i1 %cmp.i.i, label %for.end, label %_ZNK6vectorIN7obj_mapI4exprjE8key_dataELb0EjE3endEv.exit

_ZNK6vectorIN7obj_mapI4exprjE8key_dataELb0EjE3endEv.exit: ; preds = %entry
  %arrayidx.i.i = getelementptr inbounds i8, ptr %0, i64 -4
  %1 = load i32, ptr %arrayidx.i.i, align 4
  %2 = zext i32 %1 to i64
  %add.ptr.i = getelementptr inbounds %"struct.obj_map<expr, unsigned int>::key_data", ptr %0, i64 %2
  %cmp.not25 = icmp eq i32 %1, 0
  br i1 %cmp.not25, label %for.end, label %for.body.lr.ph

for.body.lr.ph:                                   ; preds = %_ZNK6vectorIN7obj_mapI4exprjE8key_dataELb0EjE3endEv.exit
  %m_nodes.i.i = getelementptr inbounds i8, ptr %lit2expr, i64 8
  br label %for.body

for.body:                                         ; preds = %for.body.lr.ph, %_ZN10ref_vectorI4expr11ast_managerE3setEjPS0_.exit22
  %__begin1.026 = phi ptr [ %0, %for.body.lr.ph ], [ %incdec.ptr, %_ZN10ref_vectorI4expr11ast_managerE3setEjPS0_.exit22 ]
  %m_value = getelementptr inbounds i8, ptr %__begin1.026, i64 8
  %3 = load i32, ptr %m_value, align 8
  %shl.i = shl i32 %3, 1
  %4 = load ptr, ptr %__begin1.026, align 8
  %tobool.not.i.i.i.i.i = icmp eq ptr %4, null
  br i1 %tobool.not.i.i.i.i.i, label %_ZN15ref_vector_coreI4expr19ref_manager_wrapperIS0_11ast_managerEE7inc_refEPS0_.exit.i.i, label %if.then.i.i.i.i.i

if.then.i.i.i.i.i:                                ; preds = %for.body
  %m_ref_count.i.i.i.i.i.i = getelementptr inbounds i8, ptr %4, i64 8
  %5 = load i32, ptr %m_ref_count.i.i.i.i.i.i, align 4
  %inc.i.i.i.i.i.i = add i32 %5, 1
  store i32 %inc.i.i.i.i.i.i, ptr %m_ref_count.i.i.i.i.i.i, align 4
  br label %_ZN15ref_vector_coreI4expr19ref_manager_wrapperIS0_11ast_managerEE7inc_refEPS0_.exit.i.i

_ZN15ref_vector_coreI4expr19ref_manager_wrapperIS0_11ast_managerEE7inc_refEPS0_.exit.i.i: ; preds = %if.then.i.i.i.i.i, %for.body
  %6 = load ptr, ptr %m_nodes.i.i, align 8
  %idxprom.i.i.i = zext i32 %shl.i to i64
  %arrayidx.i.i.i = getelementptr inbounds ptr, ptr %6, i64 %idxprom.i.i.i
  %7 = load ptr, ptr %arrayidx.i.i.i, align 8
  %8 = load ptr, ptr %lit2expr, align 8
  %tobool.not.i.i.i3.i.i = icmp eq ptr %7, null
  br i1 %tobool.not.i.i.i3.i.i, label %_ZN10ref_vectorI4expr11ast_managerE3setEjPS0_.exit, label %if.then.i.i.i4.i.i

if.then.i.i.i4.i.i:                               ; preds = %_ZN15ref_vector_coreI4expr19ref_manager_wrapperIS0_11ast_managerEE7inc_refEPS0_.exit.i.i
  %m_ref_count.i.i.i.i5.i.i = getelementptr inbounds i8, ptr %7, i64 8
  %9 = load i32, ptr %m_ref_count.i.i.i.i5.i.i, align 4
  %dec.i.i.i.i.i.i = add i32 %9, -1
  store i32 %dec.i.i.i.i.i.i, ptr %m_ref_count.i.i.i.i5.i.i, align 4
  %cmp.i.i.i.i.i = icmp eq i32 %dec.i.i.i.i.i.i, 0
  br i1 %cmp.i.i.i.i.i, label %if.then2.i.i.i.i.i, label %_ZN10ref_vectorI4expr11ast_managerE3setEjPS0_.exit

if.then2.i.i.i.i.i:                               ; preds = %if.then.i.i.i4.i.i
  tail call void @_ZN11ast_manager11delete_nodeEP3ast(ptr noundef nonnull align 8 dereferenceable(976) %8, ptr noundef nonnull %7)
  br label %_ZN10ref_vectorI4expr11ast_managerE3setEjPS0_.exit

_ZN10ref_vectorI4expr11ast_managerE3setEjPS0_.exit: ; preds = %_ZN15ref_vector_coreI4expr19ref_manager_wrapperIS0_11ast_managerEE7inc_refEPS0_.exit.i.i, %if.then.i.i.i4.i.i, %if.then2.i.i.i.i.i
  %10 = load ptr, ptr %m_nodes.i.i, align 8
  %arrayidx.i7.i.i = getelementptr inbounds ptr, ptr %10, i64 %idxprom.i.i.i
  store ptr %4, ptr %arrayidx.i7.i.i, align 8
  %xor.i = or disjoint i32 %shl.i, 1
  %11 = load ptr, ptr %this, align 8
  %12 = load ptr, ptr %__begin1.026, align 8
  %call7 = tail call noundef ptr @_Z6mk_notR11ast_managerP4expr(ptr noundef nonnull align 8 dereferenceable(976) %11, ptr noundef %12)
  %tobool.not.i.i.i.i.i7 = icmp eq ptr %call7, null
  br i1 %tobool.not.i.i.i.i.i7, label %_ZN15ref_vector_coreI4expr19ref_manager_wrapperIS0_11ast_managerEE7inc_refEPS0_.exit.i.i11, label %if.then.i.i.i.i.i8

if.then.i.i.i.i.i8:                               ; preds = %_ZN10ref_vectorI4expr11ast_managerE3setEjPS0_.exit
  %m_ref_count.i.i.i.i.i.i9 = getelementptr inbounds i8, ptr %call7, i64 8
  %13 = load i32, ptr %m_ref_count.i.i.i.i.i.i9, align 4
  %inc.i.i.i.i.i.i10 = add i32 %13, 1
  store i32 %inc.i.i.i.i.i.i10, ptr %m_ref_count.i.i.i.i.i.i9, align 4
  br label %_ZN15ref_vector_coreI4expr19ref_manager_wrapperIS0_11ast_managerEE7inc_refEPS0_.exit.i.i11

_ZN15ref_vector_coreI4expr19ref_manager_wrapperIS0_11ast_managerEE7inc_refEPS0_.exit.i.i11: ; preds = %if.then.i.i.i.i.i8, %_ZN10ref_vectorI4expr11ast_managerE3setEjPS0_.exit
  %14 = load ptr, ptr %m_nodes.i.i, align 8
  %idxprom.i.i.i13 = zext i32 %xor.i to i64
  %arrayidx.i.i.i14 = getelementptr inbounds ptr, ptr %14, i64 %idxprom.i.i.i13
  %15 = load ptr, ptr %arrayidx.i.i.i14, align 8
  %16 = load ptr, ptr %lit2expr, align 8
  %tobool.not.i.i.i3.i.i15 = icmp eq ptr %15, null
  br i1 %tobool.not.i.i.i3.i.i15, label %_ZN10ref_vectorI4expr11ast_managerE3setEjPS0_.exit22, label %if.then.i.i.i4.i.i16

if.then.i.i.i4.i.i16:                             ; preds = %_ZN15ref_vector_coreI4expr19ref_manager_wrapperIS0_11ast_managerEE7inc_refEPS0_.exit.i.i11
  %m_ref_count.i.i.i.i5.i.i17 = getelementptr inbounds i8, ptr %15, i64 8
  %17 = load i32, ptr %m_ref_count.i.i.i.i5.i.i17, align 4
  %dec.i.i.i.i.i.i18 = add i32 %17, -1
  store i32 %dec.i.i.i.i.i.i18, ptr %m_ref_count.i.i.i.i5.i.i17, align 4
  %cmp.i.i.i.i.i19 = icmp eq i32 %dec.i.i.i.i.i.i18, 0
  br i1 %cmp.i.i.i.i.i19, label %if.then2.i.i.i.i.i21, label %_ZN10ref_vectorI4expr11ast_managerE3setEjPS0_.exit22

if.then2.i.i.i.i.i21:                             ; preds = %if.then.i.i.i4.i.i16
  tail call void @_ZN11ast_manager11delete_nodeEP3ast(ptr noundef nonnull align 8 dereferenceable(976) %16, ptr noundef nonnull %15)
  br label %_ZN10ref_vectorI4expr11ast_managerE3setEjPS0_.exit22

_ZN10ref_vectorI4expr11ast_managerE3setEjPS0_.exit22: ; preds = %_ZN15ref_vector_coreI4expr19ref_manager_wrapperIS0_11ast_managerEE7inc_refEPS0_.exit.i.i11, %if.then.i.i.i4.i.i16, %if.then2.i.i.i.i.i21
  %18 = load ptr, ptr %m_nodes.i.i, align 8
  %arrayidx.i7.i.i20 = getelementptr inbounds ptr, ptr %18, i64 %idxprom.i.i.i13
  store ptr %call7, ptr %arrayidx.i7.i.i20, align 8
  %incdec.ptr = getelementptr inbounds i8, ptr %__begin1.026, i64 16
  %cmp.not = icmp eq ptr %incdec.ptr, %add.ptr.i
  br i1 %cmp.not, label %for.end, label %for.body

for.end:                                          ; preds = %_ZN10ref_vectorI4expr11ast_managerE3setEjPS0_.exit22, %entry, %_ZNK6vectorIN7obj_mapI4exprjE8key_dataELb0EjE3endEv.exit
  ret void
}